(dp1
S'Kans.'
p2
(dp3
S'Joint'
p4
ccollections
OrderedDict
p5
((lp6
(lp7
(I0
I30000
tp8
aF0.027000000000000003
aa(lp9
(I30001
I9223372036854775807
tp10
aF0.045999999999999999
aatRp11
sS'Single'
p12
g5
((lp13
(lp14
(I0
I15000
tp15
aF0.027000000000000003
aa(lp16
(I15001
I9223372036854775807
tp17
aF0.045999999999999999
aatRp18
ssS'Ore.'
p19
(dp20
g4
g5
((lp21
(lp22
(I0
I6700
tp23
aF0.050000000000000003
aa(lp24
(I6701
I16800
tp25
aF0.070000000000000007
aa(lp26
(I16801
I250000
tp27
aF0.089999999999999997
aa(lp28
(I250001
I9223372036854775807
tp29
aF0.099000000000000005
aatRp30
sg12
g5
((lp31
(lp32
(I0
I3350
tp33
aF0.050000000000000003
aa(lp34
(I3351
I8400
tp35
aF0.070000000000000007
aa(lp36
(I8401
I125000
tp37
aF0.089999999999999997
aa(lp38
(I125001
I9223372036854775807
tp39
aF0.099000000000000005
aatRp40
ssS'Minn.'
p41
(dp42
g4
g5
((lp43
(lp44
(I0
I36650
tp45
aF0.053499999999999999
aa(lp46
(I36651
I145620
tp47
aF0.070499999999999993
aa(lp48
(I145621
I258260
tp49
aF0.0785
aa(lp50
(I258261
I9223372036854775807
tp51
aF0.098500000000000004
aatRp52
sg12
g5
((lp53
(lp54
(I0
I25070
tp55
aF0.053499999999999999
aa(lp56
(I25071
I82360
tp57
aF0.070499999999999993
aa(lp58
(I82361
I154950
tp59
aF0.0785
aa(lp60
(I154951
I9223372036854775807
tp61
aF0.098500000000000004
aatRp62
ssS'Alaska'
p63
(dp64
g4
S'None'
p65
sg12
g65
ssS'Wis.'
p66
(dp67
g4
g5
((lp68
(lp69
(I0
I14790
tp70
aF0.040000000000000001
aa(lp71
(I14791
I29580
tp72
aF0.058400000000000001
aa(lp73
(I29581
I325700
tp74
aF0.062699999999999992
aa(lp75
(I325701
I9223372036854775807
tp76
aF0.076499999999999999
aatRp77
sg12
g5
((lp78
(lp79
(I0
I11090
tp80
aF0.040000000000000001
aa(lp81
(I11091
I22190
tp82
aF0.058400000000000001
aa(lp83
(I22191
I244270
tp84
aF0.062699999999999992
aa(lp85
(I244271
I9223372036854775807
tp86
aF0.076499999999999999
aatRp87
ssS'Ariz.'
p88
(dp89
g4
g5
((lp90
(lp91
(I0
I20000
tp92
aF0.025899999999999999
aa(lp93
(I20001
I50000
tp94
aF0.028799999999999999
aa(lp95
(I50001
I100000
tp96
aF0.033599999999999998
aa(lp97
(I100001
I300000
tp98
aF0.0424
aa(lp99
(I300001
I9223372036854775807
tp100
aF0.045400000000000003
aatRp101
sg12
g5
((lp102
(lp103
(I0
I10000
tp104
aF0.025899999999999999
aa(lp105
(I10001
I25000
tp106
aF0.028799999999999999
aa(lp107
(I25001
I50000
tp108
aF0.033599999999999998
aa(lp109
(I50001
I150000
tp110
aF0.0424
aa(lp111
(I150001
I9223372036854775807
tp112
aF0.045400000000000003
aatRp113
ssS'Ind.'
p114
(dp115
g4
(dp116
(I0
I9223372036854775807
tp117
F0.033000000000000002
ssg12
(dp118
(I0
I9223372036854775807
tp119
F0.033000000000000002
sssS'Idaho'
p120
(dp121
g4
g5
((lp122
(lp123
(I0
I2857
tp124
aF0.016
aa(lp125
(I2858
I5715
tp126
aF0.036000000000000004
aa(lp127
(I5716
I8573
tp128
aF0.040999999999999995
aa(lp129
(I8574
I11431
tp130
aF0.050999999999999997
aa(lp131
(I11432
I14289
tp132
aF0.060999999999999999
aa(lp133
(I14290
I21436
tp134
aF0.070999999999999994
aa(lp135
(I21437
I9223372036854775807
tp136
aF0.07400000000000001
aatRp137
sg12
g5
((lp138
(lp139
(I0
I1428
tp140
aF0.016
aa(lp141
(I1429
I2857
tp142
aF0.036000000000000004
aa(lp143
(I2858
I4286
tp144
aF0.040999999999999995
aa(lp145
(I4287
I5715
tp146
aF0.050999999999999997
aa(lp147
(I5716
I7144
tp148
aF0.060999999999999999
aa(lp149
(I7145
I10717
tp150
aF0.070999999999999994
aa(lp151
(I10718
I9223372036854775807
tp152
aF0.07400000000000001
aatRp153
ssS'Conn.'
p154
(dp155
g4
g5
((lp156
(lp157
(I0
I20000
tp158
aF0.029999999999999999
aa(lp159
(I20001
I100000
tp160
aF0.050000000000000003
aa(lp161
(I100001
I200000
tp162
aF0.055
aa(lp163
(I200001
I400000
tp164
aF0.059999999999999998
aa(lp165
(I400001
I500000
tp166
aF0.065000000000000002
aa(lp167
(I500001
I9223372036854775807
tp168
aF0.067000000000000004
aatRp169
sg12
g5
((lp170
(lp171
(I0
I10000
tp172
aF0.029999999999999999
aa(lp173
(I10001
I50000
tp174
aF0.050000000000000003
aa(lp175
(I50001
I100000
tp176
aF0.055
aa(lp177
(I100001
I200000
tp178
aF0.059999999999999998
aa(lp179
(I200001
I250000
tp180
aF0.065000000000000002
aa(lp181
(I250001
I9223372036854775807
tp182
aF0.067000000000000004
aatRp183
ssS'Calif.'
p184
(dp185
g4
g5
((lp186
(lp187
(I0
I15498
tp188
aF0.01
aa(lp189
(I15499
I36742
tp190
aF0.02
aa(lp191
(I36743
I57990
tp192
aF0.040000000000000001
aa(lp193
(I57991
I80500
tp194
aF0.059999999999999998
aa(lp195
(I80501
I101738
tp196
aF0.080000000000000002
aa(lp197
(I101739
I519688
tp198
aF0.093000000000000013
aa(lp199
(I519689
I623624
tp200
aF0.10300000000000001
aa(lp201
(I623625
I1000000
tp202
aF0.113
aa(lp203
(I1000001
I1039374
tp204
aF0.12300000000000001
aa(lp205
(I1039375
I9223372036854775807
tp206
aF0.13300000000000001
aatRp207
sg12
g5
((lp208
(lp209
(I0
I7749
tp210
aF0.01
aa(lp211
(I7750
I18371
tp212
aF0.02
aa(lp213
(I18372
I28995
tp214
aF0.040000000000000001
aa(lp215
(I28996
I40250
tp216
aF0.059999999999999998
aa(lp217
(I40251
I50689
tp218
aF0.080000000000000002
aa(lp219
(I50690
I259844
tp220
aF0.093000000000000013
aa(lp221
(I259845
I311812
tp222
aF0.10300000000000001
aa(lp223
(I311813
I519867
tp224
aF0.113
aa(lp225
(I519868
I1000000
tp226
aF0.12300000000000001
aa(lp227
(I1000001
I9223372036854775807
tp228
aF0.13300000000000001
aatRp229
ssS'Iowa'
p230
(dp231
g4
g5
((lp232
(lp233
(I0
I1539
tp234
aF0.0035999999999999999
aa(lp235
(I1540
I3078
tp236
aF0.0071999999999999998
aa(lp237
(I3079
I6156
tp238
aF0.024300000000000002
aa(lp239
(I6157
I13851
tp240
aF0.044999999999999998
aa(lp241
(I13852
I23085
tp242
aF0.061200000000000004
aa(lp243
(I23086
I30780
tp244
aF0.06480000000000001
aa(lp245
(I30781
I46170
tp246
aF0.068000000000000005
aa(lp247
(I46171
I69255
tp248
aF0.079200000000000007
aa(lp249
(I69256
I9223372036854775807
tp250
aF0.089800000000000005
aatRp251
sg12
g5
((lp252
(lp253
(I0
I1539
tp254
aF0.0035999999999999999
aa(lp255
(I1540
I3078
tp256
aF0.0071999999999999998
aa(lp257
(I3079
I6156
tp258
aF0.024300000000000002
aa(lp259
(I6157
I13851
tp260
aF0.044999999999999998
aa(lp261
(I13852
I23085
tp262
aF0.061200000000000004
aa(lp263
(I23086
I30780
tp264
aF0.06480000000000001
aa(lp265
(I30781
I46170
tp266
aF0.068000000000000005
aa(lp267
(I46171
I69255
tp268
aF0.079200000000000007
aa(lp269
(I69256
I9223372036854775807
tp270
aF0.089800000000000005
aatRp271
ssS'Ky.'
p272
(dp273
g4
g5
((lp274
(lp275
(I0
I3000
tp276
aF0.02
aa(lp277
(I3001
I4000
tp278
aF0.029999999999999999
aa(lp279
(I4001
I5000
tp280
aF0.040000000000000001
aa(lp281
(I5001
I8000
tp282
aF0.050000000000000003
aa(lp283
(I8001
I75000
tp284
aF0.057999999999999996
aa(lp285
(I75001
I9223372036854775807
tp286
aF0.059999999999999998
aatRp287
sg12
g5
((lp288
(lp289
(I0
I3000
tp290
aF0.02
aa(lp291
(I3001
I4000
tp292
aF0.029999999999999999
aa(lp293
(I4001
I5000
tp294
aF0.040000000000000001
aa(lp295
(I5001
I8000
tp296
aF0.050000000000000003
aa(lp297
(I8001
I75000
tp298
aF0.057999999999999996
aa(lp299
(I75001
I9223372036854775807
tp300
aF0.059999999999999998
aatRp301
ssS'N.H.'
p302
(dp303
g4
g5
((lp304
(lp305
(I0
I9223372036854775807
tp306
aF0.050000000000000003
aatRp307
sg12
g5
((lp308
(lp309
(I0
I9223372036854775807
tp310
aF0.050000000000000003
aatRp311
ssS'S.D.'
p312
(dp313
g4
g65
sg12
g65
ssS'N.C.'
p314
(dp315
g4
g5
((lp316
(lp317
(I0
I9223372036854775807
tp318
aF0.057500000000000002
aatRp319
sg12
g5
((lp320
(lp321
(I0
I9223372036854775807
tp322
aF0.057500000000000002
aatRp323
ssS'Utah'
p324
(dp325
g4
g5
((lp326
(lp327
(I0
I9223372036854775807
tp328
aF0.050000000000000003
aatRp329
sg12
g5
((lp330
(lp331
(I0
I9223372036854775807
tp332
aF0.050000000000000003
aatRp333
ssS'Ill.'
p334
(dp335
g4
(dp336
(I0
I9223372036854775807
tp337
F0.037499999999999999
ssg12
(dp338
(I0
I9223372036854775807
tp339
F0.037499999999999999
sssS'N.D.'
p340
(dp341
g4
g5
((lp342
(lp343
(I0
I61700
tp344
aF0.012200000000000001
aa(lp345
(I61701
I148850
tp346
aF0.022700000000000001
aa(lp347
(I148851
I226850
tp348
aF0.0252
aa(lp349
(I226851
I405100
tp350
aF0.029300000000000003
aa(lp351
(I405101
I9223372036854775807
tp352
aF0.032199999999999999
aatRp353
sg12
g5
((lp354
(lp355
(I0
I36900
tp356
aF0.012200000000000001
aa(lp357
(I36901
I89350
tp358
aF0.022700000000000001
aa(lp359
(I89351
I186350
tp360
aF0.0252
aa(lp361
(I186351
I405100
tp362
aF0.029300000000000003
aa(lp363
(I405101
I9223372036854775807
tp364
aF0.032199999999999999
aatRp365
ssS'Tex.'
p366
(dp367
g4
g65
sg12
g65
ssS'Wash.'
p368
(dp369
g4
g65
sg12
g65
ssS'Nebr.'
p370
(dp371
g4
g5
((lp372
(lp373
(I0
I6090
tp374
aF0.0246
aa(lp375
(I6091
I36570
tp376
aF0.035099999999999999
aa(lp377
(I36571
I58920
tp378
aF0.050099999999999999
aa(lp379
(I58921
I9223372036854775807
tp380
aF0.068400000000000002
aatRp381
sg12
g5
((lp382
(lp383
(I0
I3050
tp384
aF0.0246
aa(lp385
(I3051
I18280
tp386
aF0.035099999999999999
aa(lp387
(I18281
I29460
tp388
aF0.050099999999999999
aa(lp389
(I29461
I9223372036854775807
tp390
aF0.068400000000000002
aatRp391
ssS'N.J.'
p392
(dp393
g4
g5
((lp394
(lp395
(I0
I20000
tp396
aF0.013999999999999999
aa(lp397
(I20001
I50000
tp398
aF0.017500000000000002
aa(lp399
(I50001
I70000
tp400
aF0.024500000000000001
aa(lp401
(I70001
I80000
tp402
aF0.035000000000000003
aa(lp403
(I80001
I150000
tp404
aF0.055300000000000002
aa(lp405
(I150001
I500000
tp406
aF0.063700000000000007
aa(lp407
(I500001
I9223372036854775807
tp408
aF0.089700000000000002
aatRp409
sg12
g5
((lp410
(lp411
(I0
I20000
tp412
aF0.013999999999999999
aa(lp413
(I20001
I35000
tp414
aF0.017500000000000002
aa(lp415
(I35001
I40000
tp416
aF0.035000000000000003
aa(lp417
(I40001
I75000
tp418
aF0.055300000000000002
aa(lp419
(I75001
I500000
tp420
aF0.063700000000000007
aa(lp421
(I500001
I9223372036854775807
tp422
aF0.089700000000000002
aatRp423
ssS'Colo.'
p424
(dp425
g4
(dp426
(I0
I9223372036854775807
tp427
F0.046300000000000001
ssg12
(dp428
(I0
I9223372036854775807
tp429
F0.046300000000000001
sssS'Nev.'
p430
(dp431
g4
g65
sg12
g65
ssS'Ark.'
p432
(dp433
g4
g5
((lp434
(lp435
(I0
I4299
tp436
aF0.01
aa(lp437
(I4300
I8399
tp438
aF0.025000000000000001
aa(lp439
(I8400
I12599
tp440
aF0.035000000000000003
aa(lp441
(I12600
I20999
tp442
aF0.044999999999999998
aa(lp443
(I21000
I35099
tp444
aF0.059999999999999998
aa(lp445
(I35100
I9223372036854775807
tp446
aF0.070000000000000007
aatRp447
sg12
g5
((lp448
(lp449
(I0
I4299
tp450
aF0.01
aa(lp451
(I4300
I8399
tp452
aF0.025000000000000001
aa(lp453
(I8400
I12599
tp454
aF0.035000000000000003
aa(lp455
(I12600
I20999
tp456
aF0.044999999999999998
aa(lp457
(I21000
I35099
tp458
aF0.059999999999999998
aa(lp459
(I35100
I9223372036854775807
tp460
aF0.070000000000000007
aatRp461
ssS'Miss.'
p462
(dp463
g4
g5
((lp464
(lp465
(I0
I5000
tp466
aF0.029999999999999999
aa(lp467
(I5001
I10000
tp468
aF0.040000000000000001
aa(lp469
(I10001
I9223372036854775807
tp470
aF0.050000000000000003
aatRp471
sg12
g5
((lp472
(lp473
(I0
I5000
tp474
aF0.029999999999999999
aa(lp475
(I5001
I10000
tp476
aF0.040000000000000001
aa(lp477
(I10001
I9223372036854775807
tp478
aF0.050000000000000003
aatRp479
ssS'Va.'
p480
(dp481
g4
g5
((lp482
(lp483
(I0
I3000
tp484
aF0.02
aa(lp485
(I3001
I5000
tp486
aF0.029999999999999999
aa(lp487
(I5001
I17000
tp488
aF0.050000000000000003
aa(lp489
(I17001
I9223372036854775807
tp490
aF0.057500000000000002
aatRp491
sg12
g5
((lp492
(lp493
(I0
I3000
tp494
aF0.02
aa(lp495
(I3001
I5000
tp496
aF0.029999999999999999
aa(lp497
(I5001
I17000
tp498
aF0.050000000000000003
aa(lp499
(I17001
I9223372036854775807
tp500
aF0.057500000000000002
aatRp501
ssS'D.C.'
p502
(dp503
g4
g5
((lp504
(lp505
(I0
I10000
tp506
aF0.040000000000000001
aa(lp507
(I10001
I40000
tp508
aF0.059999999999999998
aa(lp509
(I40001
I60000
tp510
aF0.070000000000000007
aa(lp511
(I60001
I350000
tp512
aF0.085000000000000006
aa(lp513
(I350001
I9223372036854775807
tp514
aF0.089499999999999996
aatRp515
sg12
g5
((lp516
(lp517
(I0
I10000
tp518
aF0.040000000000000001
aa(lp519
(I10001
I40000
tp520
aF0.059999999999999998
aa(lp521
(I40001
I60000
tp522
aF0.070000000000000007
aa(lp523
(I60001
I350000
tp524
aF0.085000000000000006
aa(lp525
(I350001
I9223372036854775807
tp526
aF0.089499999999999996
aatRp527
ssS'W.Va.'
p528
(dp529
g4
g5
((lp530
(lp531
(I0
I10000
tp532
aF0.029999999999999999
aa(lp533
(I10001
I25000
tp534
aF0.040000000000000001
aa(lp535
(I25001
I40000
tp536
aF0.044999999999999998
aa(lp537
(I40001
I60000
tp538
aF0.059999999999999998
aa(lp539
(I60001
I9223372036854775807
tp540
aF0.065000000000000002
aatRp541
sg12
g5
((lp542
(lp543
(I0
I10000
tp544
aF0.029999999999999999
aa(lp545
(I10001
I25000
tp546
aF0.040000000000000001
aa(lp547
(I25001
I40000
tp548
aF0.044999999999999998
aa(lp549
(I40001
I60000
tp550
aF0.059999999999999998
aa(lp551
(I60001
I9223372036854775807
tp552
aF0.065000000000000002
aatRp553
ssS'Hawaii'
p554
(dp555
g4
g5
((lp556
(lp557
(I0
I4800
tp558
aF0.013999999999999999
aa(lp559
(I4801
I9600
tp560
aF0.032000000000000001
aa(lp561
(I9601
I19200
tp562
aF0.055
aa(lp563
(I19201
I28800
tp564
aF0.064000000000000001
aa(lp565
(I28801
I38400
tp566
aF0.068000000000000005
aa(lp567
(I38401
I48000
tp568
aF0.072000000000000008
aa(lp569
(I48001
I72000
tp570
aF0.075999999999999998
aa(lp571
(I72001
I96000
tp572
aF0.079000000000000001
aa(lp573
(I96001
I300000
tp574
aF0.082500000000000004
aa(lp575
(I300001
I350000
tp576
aF0.089999999999999997
aa(lp577
(I350001
I400000
tp578
aF0.10000000000000001
aa(lp579
(I400001
I9223372036854775807
tp580
aF0.11
aatRp581
sg12
g5
((lp582
(lp583
(I0
I2400
tp584
aF0.013999999999999999
aa(lp585
(I2401
I4800
tp586
aF0.032000000000000001
aa(lp587
(I4801
I9600
tp588
aF0.055
aa(lp589
(I9601
I14400
tp590
aF0.064000000000000001
aa(lp591
(I14401
I19200
tp592
aF0.068000000000000005
aa(lp593
(I19201
I24000
tp594
aF0.072000000000000008
aa(lp595
(I24001
I36000
tp596
aF0.075999999999999998
aa(lp597
(I36001
I48000
tp598
aF0.079000000000000001
aa(lp599
(I48001
I150000
tp600
aF0.082500000000000004
aa(lp601
(I150001
I175000
tp602
aF0.089999999999999997
aa(lp603
(I175001
I200000
tp604
aF0.10000000000000001
aa(lp605
(I200001
I9223372036854775807
tp606
aF0.11
aatRp607
ssS'Vt.'
p608
(dp609
g4
g5
((lp610
(lp611
(I0
I62600
tp612
aF0.035499999999999997
aa(lp613
(I62601
I151200
tp614
aF0.068000000000000005
aa(lp615
(I151201
I230450
tp616
aF0.078
aa(lp617
(I230451
I411500
tp618
aF0.088000000000000009
aa(lp619
(I411501
I9223372036854775807
tp620
aF0.089499999999999996
aatRp621
sg12
g5
((lp622
(lp623
(I0
I37450
tp624
aF0.035499999999999997
aa(lp625
(I37451
I90750
tp626
aF0.068000000000000005
aa(lp627
(I90751
I189300
tp628
aF0.078
aa(lp629
(I189301
I411500
tp630
aF0.088000000000000009
aa(lp631
(I411501
I9223372036854775807
tp632
aF0.089499999999999996
aatRp633
ssS'Ohio'
p634
(dp635
g4
g5
((lp636
(lp637
(I0
I5200
tp638
aF0.0053
aa(lp639
(I5201
I10400
tp640
aF0.0106
aa(lp641
(I10401
I15650
tp642
aF0.021100000000000001
aa(lp643
(I15651
I20900
tp644
aF0.026400000000000003
aa(lp645
(I20901
I41700
tp646
aF0.031699999999999999
aa(lp647
(I41701
I83350
tp648
aF0.037000000000000005
aa(lp649
(I83351
I104250
tp650
aF0.042300000000000004
aa(lp651
(I104251
I208500
tp652
aF0.049100000000000005
aa(lp653
(I208501
I9223372036854775807
tp654
aF0.0533
aatRp655
sg12
g5
((lp656
(lp657
(I0
I5200
tp658
aF0.0053
aa(lp659
(I5201
I10400
tp660
aF0.0106
aa(lp661
(I10401
I15650
tp662
aF0.021100000000000001
aa(lp663
(I15651
I20900
tp664
aF0.026400000000000003
aa(lp665
(I20901
I41700
tp666
aF0.031699999999999999
aa(lp667
(I41701
I83350
tp668
aF0.037000000000000005
aa(lp669
(I83351
I104250
tp670
aF0.042300000000000004
aa(lp671
(I104251
I208500
tp672
aF0.049100000000000005
aa(lp673
(I208501
I9223372036854775807
tp674
aF0.0533
aatRp675
ssS'N.Y.'
p676
(dp677
g4
g5
((lp678
(lp679
(I0
I16950
tp680
aF0.040000000000000001
aa(lp681
(I16951
I23300
tp682
aF0.044999999999999998
aa(lp683
(I23301
I27550
tp684
aF0.052499999999999998
aa(lp685
(I27551
I42450
tp686
aF0.059000000000000004
aa(lp687
(I42451
I159350
tp688
aF0.064500000000000002
aa(lp689
(I159351
I318750
tp690
aF0.066500000000000004
aa(lp691
(I318751
I2125450
tp692
aF0.068499999999999991
aa(lp693
(I2125451
I9223372036854775807
tp694
aF0.088200000000000001
aatRp695
sg12
g5
((lp696
(lp697
(I0
I8400
tp698
aF0.040000000000000001
aa(lp699
(I8401
I11600
tp700
aF0.044999999999999998
aa(lp701
(I11601
I13750
tp702
aF0.052499999999999998
aa(lp703
(I13751
I21150
tp704
aF0.059000000000000004
aa(lp705
(I21151
I79600
tp706
aF0.064500000000000002
aa(lp707
(I79601
I212500
tp708
aF0.066500000000000004
aa(lp709
(I212501
I1062650
tp710
aF0.068499999999999991
aa(lp711
(I1062651
I9223372036854775807
tp712
aF0.088200000000000001
aatRp713
ssS'Md.'
p714
(dp715
g4
g5
((lp716
(lp717
(I0
I1000
tp718
aF0.02
aa(lp719
(I1001
I2000
tp720
aF0.029999999999999999
aa(lp721
(I2001
I3000
tp722
aF0.040000000000000001
aa(lp723
(I3001
I150000
tp724
aF0.047500000000000001
aa(lp725
(I150001
I175000
tp726
aF0.050000000000000003
aa(lp727
(I175001
I225000
tp728
aF0.052499999999999998
aa(lp729
(I225001
I300000
tp730
aF0.055
aa(lp731
(I300001
I9223372036854775807
tp732
aF0.057500000000000002
aatRp733
sg12
g5
((lp734
(lp735
(I0
I1000
tp736
aF0.02
aa(lp737
(I1001
I2000
tp738
aF0.029999999999999999
aa(lp739
(I2001
I3000
tp740
aF0.040000000000000001
aa(lp741
(I3001
I100000
tp742
aF0.047500000000000001
aa(lp743
(I100001
I125000
tp744
aF0.050000000000000003
aa(lp745
(I125001
I150000
tp746
aF0.052499999999999998
aa(lp747
(I150001
I250000
tp748
aF0.055
aa(lp749
(I250001
I9223372036854775807
tp750
aF0.057500000000000002
aatRp751
ssS'Mass.'
p752
(dp753
g4
g5
((lp754
(lp755
(I0
I9223372036854775807
tp756
aF0.051500000000000004
aatRp757
sg12
g5
((lp758
(lp759
(I0
I9223372036854775807
tp760
aF0.051500000000000004
aatRp761
ssS'Pa.'
p762
(dp763
g4
g5
((lp764
(lp765
(I0
I9223372036854775807
tp766
aF0.030699999999999998
aatRp767
sg12
g5
((lp768
(lp769
(I0
I9223372036854775807
tp770
aF0.030699999999999998
aatRp771
ssS'La.'
p772
(dp773
g4
g5
((lp774
(lp775
(I0
I25000
tp776
aF0.02
aa(lp777
(I25001
I100000
tp778
aF0.040000000000000001
aa(lp779
(I100001
I9223372036854775807
tp780
aF0.059999999999999998
aatRp781
sg12
g5
((lp782
(lp783
(I0
I12500
tp784
aF0.02
aa(lp785
(I12501
I50000
tp786
aF0.040000000000000001
aa(lp787
(I50001
I9223372036854775807
tp788
aF0.059999999999999998
aatRp789
ssS'Fla.'
p790
(dp791
g4
g65
sg12
g65
ssS'R.I.'
p792
(dp793
g4
g5
((lp794
(lp795
(I0
I60500
tp796
aF0.037499999999999999
aa(lp797
(I60501
I137650
tp798
aF0.047500000000000001
aa(lp799
(I137651
I9223372036854775807
tp800
aF0.059900000000000002
aatRp801
sg12
g5
((lp802
(lp803
(I0
I60500
tp804
aF0.037499999999999999
aa(lp805
(I60501
I137650
tp806
aF0.047500000000000001
aa(lp807
(I137651
I9223372036854775807
tp808
aF0.059900000000000002
aatRp809
ssS'Tenn.'
p810
(dp811
g4
g5
((lp812
(lp813
(I0
I9223372036854775807
tp814
aF0.059999999999999998
aatRp815
sg12
g5
((lp816
(lp817
(I0
I9223372036854775807
tp818
aF0.059999999999999998
aatRp819
ssS'N.M.'
p820
(dp821
g4
g5
((lp822
(lp823
(I0
I8000
tp824
aF0.017000000000000001
aa(lp825
(I8001
I16000
tp826
aF0.032000000000000001
aa(lp827
(I16001
I24000
tp828
aF0.047
aa(lp829
(I24001
I9223372036854775807
tp830
aF0.049000000000000002
aatRp831
sg12
g5
((lp832
(lp833
(I0
I5500
tp834
aF0.017000000000000001
aa(lp835
(I5501
I11000
tp836
aF0.032000000000000001
aa(lp837
(I11001
I16000
tp838
aF0.047
aa(lp839
(I16001
I9223372036854775807
tp840
aF0.049000000000000002
aatRp841
ssS'Ala.'
p842
(dp843
g4
g5
((lp844
(lp845
(I0
I1000
tp846
aF0.02
aa(lp847
(I1001
I6000
tp848
aF0.040000000000000001
aa(lp849
(I6001
I9223372036854775807
tp850
aF0.050000000000000003
aatRp851
sg12
g5
((lp852
(lp853
(I0
I500
tp854
aF0.02
aa(lp855
(I501
I3000
tp856
aF0.040000000000000001
aa(lp857
(I3001
I9223372036854775807
tp858
aF0.050000000000000003
aatRp859
ssS'Del.'
p860
(dp861
g4
g5
((lp862
(lp863
(I2000
I5000
tp864
aF0.022000000000000002
aa(lp865
(I5001
I10000
tp866
aF0.039
aa(lp867
(I10001
I20000
tp868
aF0.048000000000000001
aa(lp869
(I20001
I25000
tp870
aF0.052000000000000005
aa(lp871
(I25001
I60000
tp872
aF0.055500000000000001
aa(lp873
(I60001
I9223372036854775807
tp874
aF0.066000000000000003
aatRp875
sg12
g5
((lp876
(lp877
(I2000
I5000
tp878
aF0.022000000000000002
aa(lp879
(I5001
I10000
tp880
aF0.039
aa(lp881
(I10001
I20000
tp882
aF0.048000000000000001
aa(lp883
(I20001
I25000
tp884
aF0.052000000000000005
aa(lp885
(I25001
I60000
tp886
aF0.055500000000000001
aa(lp887
(I60001
I9223372036854775807
tp888
aF0.066000000000000003
aatRp889
ssS'Ga.'
p890
(dp891
g4
g5
((lp892
(lp893
(I0
I1000
tp894
aF0.01
aa(lp895
(I1001
I3000
tp896
aF0.02
aa(lp897
(I3001
I5000
tp898
aF0.029999999999999999
aa(lp899
(I5001
I7000
tp900
aF0.040000000000000001
aa(lp901
(I7001
I10000
tp902
aF0.050000000000000003
aa(lp903
(I10001
I9223372036854775807
tp904
aF0.059999999999999998
aatRp905
sg12
g5
((lp906
(lp907
(I0
I750
tp908
aF0.01
aa(lp909
(I751
I2250
tp910
aF0.02
aa(lp911
(I2251
I3750
tp912
aF0.029999999999999999
aa(lp913
(I3751
I5250
tp914
aF0.040000000000000001
aa(lp915
(I5251
I7000
tp916
aF0.050000000000000003
aa(lp917
(I7001
I9223372036854775807
tp918
aF0.059999999999999998
aatRp919
ssS'Mich.'
p920
(dp921
g4
(dp922
(I0
I9223372036854775807
tp923
F0.042500000000000003
ssg12
(dp924
(I0
I9223372036854775807
tp925
F0.042500000000000003
sssS'Mo.'
p926
(dp927
g4
g5
((lp928
(lp929
(I0
I1000
tp930
aF0.014999999999999999
aa(lp931
(I1001
I2000
tp932
aF0.02
aa(lp933
(I2001
I3000
tp934
aF0.025000000000000001
aa(lp935
(I3001
I4000
tp936
aF0.029999999999999999
aa(lp937
(I4001
I5000
tp938
aF0.035000000000000003
aa(lp939
(I5001
I6000
tp940
aF0.040000000000000001
aa(lp941
(I6001
I7000
tp942
aF0.044999999999999998
aa(lp943
(I7001
I8000
tp944
aF0.050000000000000003
aa(lp945
(I8001
I9000
tp946
aF0.055
aa(lp947
(I9001
I9223372036854775807
tp948
aF0.059999999999999998
aatRp949
sg12
g5
((lp950
(lp951
(I0
I1000
tp952
aF0.014999999999999999
aa(lp953
(I1001
I2000
tp954
aF0.02
aa(lp955
(I2001
I3000
tp956
aF0.025000000000000001
aa(lp957
(I3001
I4000
tp958
aF0.029999999999999999
aa(lp959
(I4001
I5000
tp960
aF0.035000000000000003
aa(lp961
(I5001
I6000
tp962
aF0.040000000000000001
aa(lp963
(I6001
I7000
tp964
aF0.044999999999999998
aa(lp965
(I7001
I8000
tp966
aF0.050000000000000003
aa(lp967
(I8001
I9000
tp968
aF0.055
aa(lp969
(I9001
I9223372036854775807
tp970
aF0.059999999999999998
aatRp971
ssS'Mont.'
p972
(dp973
g4
g5
((lp974
(lp975
(I0
I2800
tp976
aF0.01
aa(lp977
(I2801
I5000
tp978
aF0.02
aa(lp979
(I5001
I7600
tp980
aF0.029999999999999999
aa(lp981
(I7601
I10300
tp982
aF0.040000000000000001
aa(lp983
(I10301
I13300
tp984
aF0.050000000000000003
aa(lp985
(I13301
I17000
tp986
aF0.059999999999999998
aa(lp987
(I17001
I9223372036854775807
tp988
aF0.069000000000000006
aatRp989
sg12
g5
((lp990
(lp991
(I0
I2800
tp992
aF0.01
aa(lp993
(I2801
I5000
tp994
aF0.02
aa(lp995
(I5001
I7600
tp996
aF0.029999999999999999
aa(lp997
(I7601
I10300
tp998
aF0.040000000000000001
aa(lp999
(I10301
I13300
tp1000
aF0.050000000000000003
aa(lp1001
(I13301
I17000
tp1002
aF0.059999999999999998
aa(lp1003
(I17001
I9223372036854775807
tp1004
aF0.069000000000000006
aatRp1005
ssS'S.C.'
p1006
(dp1007
g4
g5
((lp1008
(lp1009
(I0
I2880
tp1010
aF0
aa(lp1011
(I2881
I5760
tp1012
aF0.029999999999999999
aa(lp1013
(I5761
I8640
tp1014
aF0.040000000000000001
aa(lp1015
(I8641
I11520
tp1016
aF0.050000000000000003
aa(lp1017
(I11521
I14400
tp1018
aF0.059999999999999998
aa(lp1019
(I14401
I9223372036854775807
tp1020
aF0.070000000000000007
aatRp1021
sg12
g5
((lp1022
(lp1023
(I0
I2880
tp1024
aF0
aa(lp1025
(I2881
I5760
tp1026
aF0.029999999999999999
aa(lp1027
(I5761
I8640
tp1028
aF0.040000000000000001
aa(lp1029
(I8641
I11520
tp1030
aF0.050000000000000003
aa(lp1031
(I11521
I14400
tp1032
aF0.059999999999999998
aa(lp1033
(I14401
I9223372036854775807
tp1034
aF0.070000000000000007
aatRp1035
ssS'Okla.'
p1036
(dp1037
g4
g5
((lp1038
(lp1039
(I0
I2000
tp1040
aF0.0050000000000000001
aa(lp1041
(I2001
I5000
tp1042
aF0.01
aa(lp1043
(I5001
I7500
tp1044
aF0.02
aa(lp1045
(I7501
I9800
tp1046
aF0.029999999999999999
aa(lp1047
(I9801
I12200
tp1048
aF0.040000000000000001
aa(lp1049
(I12201
I15000
tp1050
aF0.050000000000000003
aa(lp1051
(I15001
I9223372036854775807
tp1052
aF0.052499999999999998
aatRp1053
sg12
g5
((lp1054
(lp1055
(I0
I1000
tp1056
aF0.0050000000000000001
aa(lp1057
(I1001
I2500
tp1058
aF0.01
aa(lp1059
(I2501
I3750
tp1060
aF0.02
aa(lp1061
(I3751
I4900
tp1062
aF0.029999999999999999
aa(lp1063
(I4901
I7200
tp1064
aF0.040000000000000001
aa(lp1065
(I7201
I8700
tp1066
aF0.050000000000000003
aa(lp1067
(I8701
I9223372036854775807
tp1068
aF0.052499999999999998
aatRp1069
ssS'Wyo.'
p1070
(dp1071
g4
g65
sg12
g65
ssS'Maine'
p1072
(dp1073
g4
g5
((lp1074
(lp1075
(I10449
I41849
tp1076
aF0.065000000000000002
aa(lp1077
(I41850
I9223372036854775807
tp1078
aF0.079500000000000001
aatRp1079
sg12
g5
((lp1080
(lp1081
(I5199
I20899
tp1082
aF0.065000000000000002
aa(lp1083
(I20900
I9223372036854775807
tp1084
aF0.079500000000000001
aatRp1085
ss.